target datalayout = "e-m:e-p270:32:32-p271:32:32-p272:64:64-i64:64-i128:128-f80:128-n8:16:32:64-S128"
target triple = "x86_64-pc-linux-gnu"

%struct.info_st = type { i64, i64, i64 }

; Function Attrs: nounwind uwtable
define internal i32 @cmp(ptr noundef %0, ptr noundef %1) #0 {
  %3 = alloca i32, align 4
  %4 = alloca ptr, align 8
  %5 = alloca ptr, align 8
  store ptr %0, ptr %4, align 8, !tbaa !30
  store ptr %1, ptr %5, align 8, !tbaa !30
  %6 = load ptr, ptr %4, align 8, !tbaa !30
  %7 = getelementptr inbounds nuw %struct.info_st, ptr %6, i32 0, i32 0
  %8 = load i64, ptr %7, align 8, !tbaa !17
  %9 = load ptr, ptr %5, align 8, !tbaa !30
  %10 = getelementptr inbounds nuw %struct.info_st, ptr %9, i32 0, i32 0
  %11 = load i64, ptr %10, align 8, !tbaa !17
  %12 = icmp ult i64 %8, %11
  br i1 %12, label %13, label %14

13:                                               ; preds = %2
  store i32 -1, ptr %3, align 4
  br label %42

14:                                               ; preds = %2
  %15 = load ptr, ptr %4, align 8, !tbaa !30
  %16 = getelementptr inbounds nuw %struct.info_st, ptr %15, i32 0, i32 0
  %17 = load i64, ptr %16, align 8, !tbaa !17
  %18 = load ptr, ptr %5, align 8, !tbaa !30
  %19 = getelementptr inbounds nuw %struct.info_st, ptr %18, i32 0, i32 0
  %20 = load i64, ptr %19, align 8, !tbaa !17
  %21 = icmp ugt i64 %17, %20
  br i1 %21, label %22, label %23

22:                                               ; preds = %14
  store i32 1, ptr %3, align 4
  br label %42

23:                                               ; preds = %14
  %24 = load ptr, ptr %4, align 8, !tbaa !30
  %25 = getelementptr inbounds nuw %struct.info_st, ptr %24, i32 0, i32 1
  %26 = load i64, ptr %25, align 8, !tbaa !13
  %27 = load ptr, ptr %5, align 8, !tbaa !30
  %28 = getelementptr inbounds nuw %struct.info_st, ptr %27, i32 0, i32 1
  %29 = load i64, ptr %28, align 8, !tbaa !13
  %30 = icmp ult i64 %26, %29
  br i1 %30, label %31, label %32

31:                                               ; preds = %23
  store i32 -1, ptr %3, align 4
  br label %42

32:                                               ; preds = %23
  %33 = load ptr, ptr %4, align 8, !tbaa !30
  %34 = getelementptr inbounds nuw %struct.info_st, ptr %33, i32 0, i32 1
  %35 = load i64, ptr %34, align 8, !tbaa !13
  %36 = load ptr, ptr %5, align 8, !tbaa !30
  %37 = getelementptr inbounds nuw %struct.info_st, ptr %36, i32 0, i32 1
  %38 = load i64, ptr %37, align 8, !tbaa !13
  %39 = icmp ugt i64 %35, %38
  br i1 %39, label %40, label %41

40:                                               ; preds = %32
  store i32 1, ptr %3, align 4
  br label %42

41:                                               ; preds = %32
  store i32 0, ptr %3, align 4
  br label %42

42:                                               ; preds = %41, %40, %31, %22, %13
  %43 = load i32, ptr %3, align 4
  ret i32 %43
}